target datalayout = "e-m:e-p270:32:32-p271:32:32-p272:64:64-i64:64-i128:128-f80:128-n8:16:32:64-S128"
target triple = "x86_64-pc-linux-gnu"

%struct.QMetaObject = type { %"struct.QMetaObject::Data" }
%"struct.QMetaObject::Data" = type { %"struct.QMetaObject::SuperData", ptr, ptr, ptr, ptr, ptr, ptr }
%"struct.QMetaObject::SuperData" = type { ptr }
%class.QObject = type { ptr, %class.QScopedPointer }
%class.QScopedPointer = type { ptr }
%class.CMainWindow = type { %class.QMainWindow, ptr, ptr, i32, i32, ptr, ptr, ptr, ptr, ptr, ptr, ptr, ptr, ptr, ptr, ptr, ptr, ptr, ptr, ptr, ptr, ptr, ptr, ptr, ptr, ptr, ptr, ptr, ptr, ptr, ptr, ptr }
%class.QMainWindow = type { %class.QWidget }
%class.QWidget = type { %class.QObject, %class.QPaintDevice.base, ptr }
%class.QPaintDevice.base = type <{ ptr, i16 }>
%class.ImageViewer = type { %class.QMainWindow, ptr, ptr, ptr, ptr, double, ptr, ptr, ptr, ptr, ptr, ptr, ptr, ptr, ptr, ptr }
%class.QTextCursor = type { %class.QSharedDataPointer }
%class.QSharedDataPointer = type { ptr }

@.str.34 = private unnamed_addr constant [9 x i8] c"MdiChild\00", align 1
@_ZN8MdiChild16staticMetaObjectE = external global %struct.QMetaObject, align 8
@_ZN11ImageViewer16staticMetaObjectE = external global %struct.QMetaObject, align 8

; Function Attrs: mustprogress uwtable
define linkonce_odr noundef ptr @_ZNK11QMetaObject4castEP7QObject(ptr noundef nonnull align 8 dereferenceable(56) %0, ptr noundef %1) #0 comdat align 2 {
  %3 = alloca ptr, align 8
  %4 = alloca ptr, align 8
  store ptr %0, ptr %3, align 8, !tbaa !413
  store ptr %1, ptr %4, align 8, !tbaa !128
  %5 = load ptr, ptr %3, align 8
  %6 = load ptr, ptr %4, align 8, !tbaa !128
  %7 = call noundef ptr @_ZNK11QMetaObject4castEPK7QObject(ptr noundef nonnull align 8 dereferenceable(56) %5, ptr noundef %6)
  ret ptr %7
}

; Function Attrs: inlinehint mustprogress uwtable
define linkonce_odr noundef ptr @_Z12qobject_castIP11ImageViewerET_P7QObject(ptr noundef %0) #6 comdat {
  %2 = alloca ptr, align 8
  store ptr %0, ptr %2, align 8, !tbaa !128
  %3 = load ptr, ptr %2, align 8, !tbaa !128
  %4 = call noundef ptr @_ZNK11QMetaObject4castEP7QObject(ptr noundef nonnull align 8 dereferenceable(56) @_ZN11ImageViewer16staticMetaObjectE, ptr noundef %3)
  ret ptr %4
}

; Function Attrs: inlinehint mustprogress uwtable
define linkonce_odr noundef ptr @_Z12qobject_castIP8MdiChildET_P7QObject(ptr noundef %0) #6 comdat {
  %2 = alloca ptr, align 8
  store ptr %0, ptr %2, align 8, !tbaa !128
  %3 = load ptr, ptr %2, align 8, !tbaa !128
  %4 = call noundef ptr @_ZNK11QMetaObject4castEP7QObject(ptr noundef nonnull align 8 dereferenceable(56) @_ZN8MdiChild16staticMetaObjectE, ptr noundef %3)
  ret ptr %4
}

; Function Attrs: inlinehint mustprogress uwtable
define linkonce_odr noundef zeroext i1 @_ZNK7QObject8inheritsEPKc(ptr noundef nonnull align 8 dereferenceable(16) %0, ptr noundef %1) #6 comdat align 2 {
  %3 = alloca ptr, align 8
  %4 = alloca ptr, align 8
  store ptr %0, ptr %3, align 8, !tbaa !128
  store ptr %1, ptr %4, align 8, !tbaa !3
  %5 = load ptr, ptr %3, align 8
  %6 = load ptr, ptr %4, align 8, !tbaa !3
  %7 = load ptr, ptr %5, align 8, !tbaa !66
  %8 = getelementptr inbounds ptr, ptr %7, i64 1
  %9 = load ptr, ptr %8, align 8
  %10 = call noundef ptr %9(ptr noundef nonnull align 8 dereferenceable(16) %5, ptr noundef %6)
  %11 = icmp ne ptr %10, null
  ret i1 %11
}

; Function Attrs: mustprogress uwtable
define noundef ptr @_ZN11CMainWindow14activeMdiChildEv(ptr noundef nonnull align 8 dereferenceable(280) %0) #0 align 2 {
  %2 = alloca ptr, align 8
  %3 = alloca ptr, align 8
  %4 = alloca ptr, align 8
  %5 = alloca i32, align 4
  store ptr %0, ptr %3, align 8, !tbaa !21
  %6 = load ptr, ptr %3, align 8
  call void @llvm.lifetime.start.p0(i64 8, ptr %4) #11
  %7 = getelementptr inbounds nuw %class.CMainWindow, ptr %6, i32 0, i32 1
  %8 = load ptr, ptr %7, align 8, !tbaa !70
  %9 = call noundef ptr @_ZNK8QMdiArea15activeSubWindowEv(ptr noundef nonnull align 8 dereferenceable(40) %8)
  store ptr %9, ptr %4, align 8, !tbaa !151
  %10 = load ptr, ptr %4, align 8, !tbaa !151
  %11 = icmp ne ptr %10, null
  br i1 %11, label %12, label %26

12:                                               ; preds = %1
  %13 = load ptr, ptr %4, align 8, !tbaa !151
  %14 = call noundef ptr @_ZNK13QMdiSubWindow6widgetEv(ptr noundef nonnull align 8 dereferenceable(40) %13)
  %15 = call noundef zeroext i1 @_ZNK7QObject8inheritsEPKc(ptr noundef nonnull align 8 dereferenceable(16) %14, ptr noundef @.str.34)
  br i1 %15, label %16, label %20

16:                                               ; preds = %12
  %17 = load ptr, ptr %4, align 8, !tbaa !151
  %18 = call noundef ptr @_ZNK13QMdiSubWindow6widgetEv(ptr noundef nonnull align 8 dereferenceable(40) %17)
  %19 = call noundef ptr @_Z12qobject_castIP8MdiChildET_P7QObject(ptr noundef %18)
  store ptr %19, ptr %2, align 8
  store i32 1, ptr %5, align 4
  br label %27

20:                                               ; preds = %12
  %21 = load ptr, ptr %4, align 8, !tbaa !151
  %22 = call noundef ptr @_ZNK13QMdiSubWindow6widgetEv(ptr noundef nonnull align 8 dereferenceable(40) %21)
  %23 = call noundef ptr @_Z12qobject_castIP11ImageViewerET_P7QObject(ptr noundef %22)
  %24 = getelementptr inbounds nuw %class.ImageViewer, ptr %23, i32 0, i32 1
  %25 = load ptr, ptr %24, align 8, !tbaa !179
  store ptr %25, ptr %2, align 8
  store i32 1, ptr %5, align 4
  br label %27

26:                                               ; preds = %1
  store i32 0, ptr %5, align 4
  br label %27

27:                                               ; preds = %26, %20, %16
  call void @llvm.lifetime.end.p0(i64 8, ptr %4) #11
  %28 = load i32, ptr %5, align 4
  switch i32 %28, label %32 [
    i32 0, label %29
    i32 1, label %30
  ]

29:                                               ; preds = %27
  store ptr null, ptr %2, align 8
  br label %30

30:                                               ; preds = %29, %27
  %31 = load ptr, ptr %2, align 8
  ret ptr %31

32:                                               ; preds = %27
  unreachable
}

; Function Attrs: mustprogress uwtable
define void @_ZN11CMainWindow14updateFileMenuEv(ptr noundef nonnull align 8 dereferenceable(280) %0) #0 align 2 personality ptr @__gxx_personality_v0 {
  %2 = alloca ptr, align 8
  %3 = alloca %class.QTextCursor, align 8
  %4 = alloca ptr, align 8
  %5 = alloca i32, align 4
  store ptr %0, ptr %2, align 8, !tbaa !21
  %6 = load ptr, ptr %2, align 8
  %7 = call noundef ptr @_ZN11CMainWindow14activeMdiChildEv(ptr noundef nonnull align 8 dereferenceable(280) %6)
  %8 = icmp ne ptr %7, null
  br i1 %8, label %34, label %9

9:                                                ; preds = %1
  %10 = getelementptr inbounds nuw %class.CMainWindow, ptr %6, i32 0, i32 10
  %11 = load ptr, ptr %10, align 8, !tbaa !102
  call void @_ZN7QAction10setEnabledEb(ptr noundef nonnull align 8 dereferenceable(16) %11, i1 noundef zeroext false)
  %12 = getelementptr inbounds nuw %class.CMainWindow, ptr %6, i32 0, i32 11
  %13 = load ptr, ptr %12, align 8, !tbaa !103
  call void @_ZN7QAction10setEnabledEb(ptr noundef nonnull align 8 dereferenceable(16) %13, i1 noundef zeroext false)
  %14 = getelementptr inbounds nuw %class.CMainWindow, ptr %6, i32 0, i32 15
  %15 = load ptr, ptr %14, align 8, !tbaa !107
  call void @_ZN7QAction10setEnabledEb(ptr noundef nonnull align 8 dereferenceable(16) %15, i1 noundef zeroext false)
  %16 = getelementptr inbounds nuw %class.CMainWindow, ptr %6, i32 0, i32 16
  %17 = load ptr, ptr %16, align 8, !tbaa !108
  call void @_ZN7QAction10setEnabledEb(ptr noundef nonnull align 8 dereferenceable(16) %17, i1 noundef zeroext false)
  %18 = getelementptr inbounds nuw %class.CMainWindow, ptr %6, i32 0, i32 17
  %19 = load ptr, ptr %18, align 8, !tbaa !109
  call void @_ZN7QAction10setEnabledEb(ptr noundef nonnull align 8 dereferenceable(16) %19, i1 noundef zeroext false)
  %20 = getelementptr inbounds nuw %class.CMainWindow, ptr %6, i32 0, i32 18
  %21 = load ptr, ptr %20, align 8, !tbaa !110
  call void @_ZN7QAction10setEnabledEb(ptr noundef nonnull align 8 dereferenceable(16) %21, i1 noundef zeroext false)
  %22 = getelementptr inbounds nuw %class.CMainWindow, ptr %6, i32 0, i32 19
  %23 = load ptr, ptr %22, align 8, !tbaa !111
  call void @_ZN7QAction10setEnabledEb(ptr noundef nonnull align 8 dereferenceable(16) %23, i1 noundef zeroext false)
  %24 = getelementptr inbounds nuw %class.CMainWindow, ptr %6, i32 0, i32 20
  %25 = load ptr, ptr %24, align 8, !tbaa !112
  call void @_ZN7QAction10setEnabledEb(ptr noundef nonnull align 8 dereferenceable(16) %25, i1 noundef zeroext false)
  %26 = getelementptr inbounds nuw %class.CMainWindow, ptr %6, i32 0, i32 21
  %27 = load ptr, ptr %26, align 8, !tbaa !113
  call void @_ZN7QAction10setEnabledEb(ptr noundef nonnull align 8 dereferenceable(16) %27, i1 noundef zeroext false)
  %28 = getelementptr inbounds nuw %class.CMainWindow, ptr %6, i32 0, i32 22
  %29 = load ptr, ptr %28, align 8, !tbaa !114
  call void @_ZN7QAction10setVisibleEb(ptr noundef nonnull align 8 dereferenceable(16) %29, i1 noundef zeroext false)
  %30 = getelementptr inbounds nuw %class.CMainWindow, ptr %6, i32 0, i32 24
  %31 = load ptr, ptr %30, align 8, !tbaa !116
  call void @_ZN7QAction10setEnabledEb(ptr noundef nonnull align 8 dereferenceable(16) %31, i1 noundef zeroext false)
  %32 = getelementptr inbounds nuw %class.CMainWindow, ptr %6, i32 0, i32 25
  %33 = load ptr, ptr %32, align 8, !tbaa !117
  call void @_ZN7QAction10setEnabledEb(ptr noundef nonnull align 8 dereferenceable(16) %33, i1 noundef zeroext false)
  br label %77

34:                                               ; preds = %1
  %35 = getelementptr inbounds nuw %class.CMainWindow, ptr %6, i32 0, i32 10
  %36 = load ptr, ptr %35, align 8, !tbaa !102
  call void @_ZN7QAction10setEnabledEb(ptr noundef nonnull align 8 dereferenceable(16) %36, i1 noundef zeroext true)
  %37 = getelementptr inbounds nuw %class.CMainWindow, ptr %6, i32 0, i32 11
  %38 = load ptr, ptr %37, align 8, !tbaa !103
  call void @_ZN7QAction10setEnabledEb(ptr noundef nonnull align 8 dereferenceable(16) %38, i1 noundef zeroext true)
  %39 = getelementptr inbounds nuw %class.CMainWindow, ptr %6, i32 0, i32 15
  %40 = load ptr, ptr %39, align 8, !tbaa !107
  call void @_ZN7QAction10setEnabledEb(ptr noundef nonnull align 8 dereferenceable(16) %40, i1 noundef zeroext true)
  %41 = getelementptr inbounds nuw %class.CMainWindow, ptr %6, i32 0, i32 16
  %42 = load ptr, ptr %41, align 8, !tbaa !108
  call void @_ZN7QAction10setEnabledEb(ptr noundef nonnull align 8 dereferenceable(16) %42, i1 noundef zeroext true)
  %43 = getelementptr inbounds nuw %class.CMainWindow, ptr %6, i32 0, i32 17
  %44 = load ptr, ptr %43, align 8, !tbaa !109
  call void @_ZN7QAction10setEnabledEb(ptr noundef nonnull align 8 dereferenceable(16) %44, i1 noundef zeroext true)
  %45 = getelementptr inbounds nuw %class.CMainWindow, ptr %6, i32 0, i32 18
  %46 = load ptr, ptr %45, align 8, !tbaa !110
  call void @_ZN7QAction10setEnabledEb(ptr noundef nonnull align 8 dereferenceable(16) %46, i1 noundef zeroext true)
  %47 = getelementptr inbounds nuw %class.CMainWindow, ptr %6, i32 0, i32 19
  %48 = load ptr, ptr %47, align 8, !tbaa !111
  call void @_ZN7QAction10setEnabledEb(ptr noundef nonnull align 8 dereferenceable(16) %48, i1 noundef zeroext true)
  %49 = getelementptr inbounds nuw %class.CMainWindow, ptr %6, i32 0, i32 20
  %50 = load ptr, ptr %49, align 8, !tbaa !112
  call void @_ZN7QAction10setEnabledEb(ptr noundef nonnull align 8 dereferenceable(16) %50, i1 noundef zeroext true)
  %51 = getelementptr inbounds nuw %class.CMainWindow, ptr %6, i32 0, i32 21
  %52 = load ptr, ptr %51, align 8, !tbaa !113
  call void @_ZN7QAction10setEnabledEb(ptr noundef nonnull align 8 dereferenceable(16) %52, i1 noundef zeroext true)
  %53 = getelementptr inbounds nuw %class.CMainWindow, ptr %6, i32 0, i32 22
  %54 = load ptr, ptr %53, align 8, !tbaa !114
  call void @_ZN7QAction10setVisibleEb(ptr noundef nonnull align 8 dereferenceable(16) %54, i1 noundef zeroext true)
  %55 = getelementptr inbounds nuw %class.CMainWindow, ptr %6, i32 0, i32 24
  %56 = load ptr, ptr %55, align 8, !tbaa !116
  call void @_ZN7QAction10setEnabledEb(ptr noundef nonnull align 8 dereferenceable(16) %56, i1 noundef zeroext true)
  %57 = getelementptr inbounds nuw %class.CMainWindow, ptr %6, i32 0, i32 25
  %58 = load ptr, ptr %57, align 8, !tbaa !117
  call void @_ZN7QAction10setEnabledEb(ptr noundef nonnull align 8 dereferenceable(16) %58, i1 noundef zeroext true)
  call void @llvm.lifetime.start.p0(i64 8, ptr %3) #11
  %59 = call noundef ptr @_ZN11CMainWindow14activeMdiChildEv(ptr noundef nonnull align 8 dereferenceable(280) %6)
  call void @_ZNK9QTextEdit10textCursorEv(ptr dead_on_unwind writable sret(%class.QTextCursor) align 8 %3, ptr noundef nonnull align 8 dereferenceable(40) %59)
  %60 = invoke noundef zeroext i1 @_ZNK11QTextCursor12hasSelectionEv(ptr noundef nonnull align 8 dereferenceable(8) %3)
          to label %61 unwind label %67

61:                                               ; preds = %34
  call void @_ZN11QTextCursorD1Ev(ptr noundef nonnull align 8 dereferenceable(8) %3) #11
  call void @llvm.lifetime.end.p0(i64 8, ptr %3) #11
  br i1 %60, label %62, label %71

62:                                               ; preds = %61
  %63 = getelementptr inbounds nuw %class.CMainWindow, ptr %6, i32 0, i32 13
  %64 = load ptr, ptr %63, align 8, !tbaa !105
  call void @_ZN7QAction10setEnabledEb(ptr noundef nonnull align 8 dereferenceable(16) %64, i1 noundef zeroext true)
  %65 = getelementptr inbounds nuw %class.CMainWindow, ptr %6, i32 0, i32 14
  %66 = load ptr, ptr %65, align 8, !tbaa !106
  call void @_ZN7QAction10setEnabledEb(ptr noundef nonnull align 8 dereferenceable(16) %66, i1 noundef zeroext true)
  br label %76

67:                                               ; preds = %34
  %68 = landingpad { ptr, i32 }
          cleanup
  %69 = extractvalue { ptr, i32 } %68, 0
  store ptr %69, ptr %4, align 8
  %70 = extractvalue { ptr, i32 } %68, 1
  store i32 %70, ptr %5, align 4
  call void @_ZN11QTextCursorD1Ev(ptr noundef nonnull align 8 dereferenceable(8) %3) #11
  call void @llvm.lifetime.end.p0(i64 8, ptr %3) #11
  br label %78

71:                                               ; preds = %61
  %72 = getelementptr inbounds nuw %class.CMainWindow, ptr %6, i32 0, i32 13
  %73 = load ptr, ptr %72, align 8, !tbaa !105
  call void @_ZN7QAction10setEnabledEb(ptr noundef nonnull align 8 dereferenceable(16) %73, i1 noundef zeroext false)
  %74 = getelementptr inbounds nuw %class.CMainWindow, ptr %6, i32 0, i32 14
  %75 = load ptr, ptr %74, align 8, !tbaa !106
  call void @_ZN7QAction10setEnabledEb(ptr noundef nonnull align 8 dereferenceable(16) %75, i1 noundef zeroext false)
  br label %76

76:                                               ; preds = %71, %62
  br label %77

77:                                               ; preds = %76, %9
  ret void

78:                                               ; preds = %67
  %79 = load ptr, ptr %4, align 8
  %80 = load i32, ptr %5, align 4
  %81 = insertvalue { ptr, i32 } poison, ptr %79, 0
  %82 = insertvalue { ptr, i32 } %81, i32 %80, 1
  resume { ptr, i32 } %82
}