; Function Attrs: mustprogress uwtable
define void @_ZN11CMainWindow14updateFileMenuEv(ptr noundef nonnull readonly align 8 captures(none) dereferenceable(280) %0) local_unnamed_addr #0 align 2 personality ptr @__gxx_personality_v0 {
  %2 = alloca %class.QTextCursor, align 8
  %3 = getelementptr inbounds nuw i8, ptr %0, i64 40
  %4 = load ptr, ptr %3, align 8, !tbaa !48
  %5 = tail call noundef ptr @_ZNK8QMdiArea15activeSubWindowEv(ptr noundef nonnull align 8 dereferenceable(40) %4)
  %.not.not.i = icmp eq ptr %5, null
  br i1 %.not.not.i, label %_ZN11CMainWindow14activeMdiChildEv.exit.thread, label %6

6:                                                ; preds = %1
  %7 = tail call noundef ptr @_ZNK13QMdiSubWindow6widgetEv(ptr noundef nonnull align 8 dereferenceable(40) %5)
  %8 = load ptr, ptr %7, align 8, !tbaa !46
  %9 = getelementptr inbounds nuw i8, ptr %8, i64 8
  %10 = load ptr, ptr %9, align 8
  %11 = tail call noundef ptr %10(ptr noundef nonnull align 8 dereferenceable(16) %7, ptr noundef nonnull @.str.34)
  %.not8.i = icmp eq ptr %11, null
  %12 = tail call noundef ptr @_ZNK13QMdiSubWindow6widgetEv(ptr noundef nonnull align 8 dereferenceable(40) %5)
  br i1 %.not8.i, label %15, label %13

13:                                               ; preds = %6
  %14 = tail call noundef ptr @_ZNK11QMetaObject4castEPK7QObject(ptr noundef nonnull align 8 dereferenceable(56) @_ZN8MdiChild16staticMetaObjectE, ptr noundef %12)
  br label %_ZN11CMainWindow14activeMdiChildEv.exit

15:                                               ; preds = %6
  %16 = tail call noundef ptr @_ZNK11QMetaObject4castEPK7QObject(ptr noundef nonnull align 8 dereferenceable(56) @_ZN11ImageViewer16staticMetaObjectE, ptr noundef %12)
  %17 = getelementptr inbounds nuw i8, ptr %16, i64 40
  %18 = load ptr, ptr %17, align 8, !tbaa !220
  br label %_ZN11CMainWindow14activeMdiChildEv.exit

_ZN11CMainWindow14activeMdiChildEv.exit:          ; preds = %13, %15
  %spec.select.i = phi ptr [ %14, %13 ], [ %18, %15 ]
  %.not = icmp eq ptr %spec.select.i, null
  br i1 %.not, label %_ZN11CMainWindow14activeMdiChildEv.exit.thread, label %43

_ZN11CMainWindow14activeMdiChildEv.exit.thread:   ; preds = %1, %_ZN11CMainWindow14activeMdiChildEv.exit
  %19 = getelementptr inbounds nuw i8, ptr %0, i64 104
  %20 = load ptr, ptr %19, align 8, !tbaa !90
  tail call void @_ZN7QAction10setEnabledEb(ptr noundef nonnull align 8 dereferenceable(16) %20, i1 noundef zeroext false)
  %21 = getelementptr inbounds nuw i8, ptr %0, i64 112
  %22 = load ptr, ptr %21, align 8, !tbaa !94
  tail call void @_ZN7QAction10setEnabledEb(ptr noundef nonnull align 8 dereferenceable(16) %22, i1 noundef zeroext false)
  %23 = getelementptr inbounds nuw i8, ptr %0, i64 144
  %24 = load ptr, ptr %23, align 8, !tbaa !114
  tail call void @_ZN7QAction10setEnabledEb(ptr noundef nonnull align 8 dereferenceable(16) %24, i1 noundef zeroext false)
  %25 = getelementptr inbounds nuw i8, ptr %0, i64 152
  %26 = load ptr, ptr %25, align 8, !tbaa !118
  tail call void @_ZN7QAction10setEnabledEb(ptr noundef nonnull align 8 dereferenceable(16) %26, i1 noundef zeroext false)
  %27 = getelementptr inbounds nuw i8, ptr %0, i64 160
  %28 = load ptr, ptr %27, align 8, !tbaa !124
  tail call void @_ZN7QAction10setEnabledEb(ptr noundef nonnull align 8 dereferenceable(16) %28, i1 noundef zeroext false)
  %29 = getelementptr inbounds nuw i8, ptr %0, i64 168
  %30 = load ptr, ptr %29, align 8, !tbaa !128
  tail call void @_ZN7QAction10setEnabledEb(ptr noundef nonnull align 8 dereferenceable(16) %30, i1 noundef zeroext false)
  %31 = getelementptr inbounds nuw i8, ptr %0, i64 176
  %32 = load ptr, ptr %31, align 8, !tbaa !132
  tail call void @_ZN7QAction10setEnabledEb(ptr noundef nonnull align 8 dereferenceable(16) %32, i1 noundef zeroext false)
  %33 = getelementptr inbounds nuw i8, ptr %0, i64 184
  %34 = load ptr, ptr %33, align 8, !tbaa !136
  tail call void @_ZN7QAction10setEnabledEb(ptr noundef nonnull align 8 dereferenceable(16) %34, i1 noundef zeroext false)
  %35 = getelementptr inbounds nuw i8, ptr %0, i64 192
  %36 = load ptr, ptr %35, align 8, !tbaa !140
  tail call void @_ZN7QAction10setEnabledEb(ptr noundef nonnull align 8 dereferenceable(16) %36, i1 noundef zeroext false)
  %37 = getelementptr inbounds nuw i8, ptr %0, i64 200
  %38 = load ptr, ptr %37, align 8, !tbaa !144
  tail call void @_ZN7QAction10setVisibleEb(ptr noundef nonnull align 8 dereferenceable(16) %38, i1 noundef zeroext false)
  %39 = getelementptr inbounds nuw i8, ptr %0, i64 216
  %40 = load ptr, ptr %39, align 8, !tbaa !149
  tail call void @_ZN7QAction10setEnabledEb(ptr noundef nonnull align 8 dereferenceable(16) %40, i1 noundef zeroext false)
  %41 = getelementptr inbounds nuw i8, ptr %0, i64 224
  %42 = load ptr, ptr %41, align 8, !tbaa !153
  tail call void @_ZN7QAction10setEnabledEb(ptr noundef nonnull align 8 dereferenceable(16) %42, i1 noundef zeroext false)
  br label %93

43:                                               ; preds = %_ZN11CMainWindow14activeMdiChildEv.exit
  %44 = getelementptr inbounds nuw i8, ptr %0, i64 104
  %45 = load ptr, ptr %44, align 8, !tbaa !90
  tail call void @_ZN7QAction10setEnabledEb(ptr noundef nonnull align 8 dereferenceable(16) %45, i1 noundef zeroext true)
  %46 = getelementptr inbounds nuw i8, ptr %0, i64 112
  %47 = load ptr, ptr %46, align 8, !tbaa !94
  tail call void @_ZN7QAction10setEnabledEb(ptr noundef nonnull align 8 dereferenceable(16) %47, i1 noundef zeroext true)
  %48 = getelementptr inbounds nuw i8, ptr %0, i64 144
  %49 = load ptr, ptr %48, align 8, !tbaa !114
  tail call void @_ZN7QAction10setEnabledEb(ptr noundef nonnull align 8 dereferenceable(16) %49, i1 noundef zeroext true)
  %50 = getelementptr inbounds nuw i8, ptr %0, i64 152
  %51 = load ptr, ptr %50, align 8, !tbaa !118
  tail call void @_ZN7QAction10setEnabledEb(ptr noundef nonnull align 8 dereferenceable(16) %51, i1 noundef zeroext true)
  %52 = getelementptr inbounds nuw i8, ptr %0, i64 160
  %53 = load ptr, ptr %52, align 8, !tbaa !124
  tail call void @_ZN7QAction10setEnabledEb(ptr noundef nonnull align 8 dereferenceable(16) %53, i1 noundef zeroext true)
  %54 = getelementptr inbounds nuw i8, ptr %0, i64 168
  %55 = load ptr, ptr %54, align 8, !tbaa !128
  tail call void @_ZN7QAction10setEnabledEb(ptr noundef nonnull align 8 dereferenceable(16) %55, i1 noundef zeroext true)
  %56 = getelementptr inbounds nuw i8, ptr %0, i64 176
  %57 = load ptr, ptr %56, align 8, !tbaa !132
  tail call void @_ZN7QAction10setEnabledEb(ptr noundef nonnull align 8 dereferenceable(16) %57, i1 noundef zeroext true)
  %58 = getelementptr inbounds nuw i8, ptr %0, i64 184
  %59 = load ptr, ptr %58, align 8, !tbaa !136
  tail call void @_ZN7QAction10setEnabledEb(ptr noundef nonnull align 8 dereferenceable(16) %59, i1 noundef zeroext true)
  %60 = getelementptr inbounds nuw i8, ptr %0, i64 192
  %61 = load ptr, ptr %60, align 8, !tbaa !140
  tail call void @_ZN7QAction10setEnabledEb(ptr noundef nonnull align 8 dereferenceable(16) %61, i1 noundef zeroext true)
  %62 = getelementptr inbounds nuw i8, ptr %0, i64 200
  %63 = load ptr, ptr %62, align 8, !tbaa !144
  tail call void @_ZN7QAction10setVisibleEb(ptr noundef nonnull align 8 dereferenceable(16) %63, i1 noundef zeroext true)
  %64 = getelementptr inbounds nuw i8, ptr %0, i64 216
  %65 = load ptr, ptr %64, align 8, !tbaa !149
  tail call void @_ZN7QAction10setEnabledEb(ptr noundef nonnull align 8 dereferenceable(16) %65, i1 noundef zeroext true)
  %66 = getelementptr inbounds nuw i8, ptr %0, i64 224
  %67 = load ptr, ptr %66, align 8, !tbaa !153
  tail call void @_ZN7QAction10setEnabledEb(ptr noundef nonnull align 8 dereferenceable(16) %67, i1 noundef zeroext true)
  call void @llvm.lifetime.start.p0(i64 8, ptr nonnull %2) #16
  %68 = load ptr, ptr %3, align 8, !tbaa !48
  %69 = tail call noundef ptr @_ZNK8QMdiArea15activeSubWindowEv(ptr noundef nonnull align 8 dereferenceable(40) %68)
  %.not.not.i2 = icmp ne ptr %69, null
  tail call void @llvm.assume(i1 %.not.not.i2)
  %70 = tail call noundef ptr @_ZNK13QMdiSubWindow6widgetEv(ptr noundef nonnull align 8 dereferenceable(40) %69)
  %71 = load ptr, ptr %70, align 8, !tbaa !46
  %72 = getelementptr inbounds nuw i8, ptr %71, i64 8
  %73 = load ptr, ptr %72, align 8
  %74 = tail call noundef ptr %73(ptr noundef nonnull align 8 dereferenceable(16) %70, ptr noundef nonnull @.str.34)
  %.not8.i3 = icmp eq ptr %74, null
  %75 = tail call noundef ptr @_ZNK13QMdiSubWindow6widgetEv(ptr noundef nonnull align 8 dereferenceable(40) %69)
  br i1 %.not8.i3, label %78, label %76

76:                                               ; preds = %43
  %77 = tail call noundef ptr @_ZNK11QMetaObject4castEPK7QObject(ptr noundef nonnull align 8 dereferenceable(56) @_ZN8MdiChild16staticMetaObjectE, ptr noundef %75)
  br label %_ZN11CMainWindow14activeMdiChildEv.exit5

78:                                               ; preds = %43
  %79 = tail call noundef ptr @_ZNK11QMetaObject4castEPK7QObject(ptr noundef nonnull align 8 dereferenceable(56) @_ZN11ImageViewer16staticMetaObjectE, ptr noundef %75)
  %80 = getelementptr inbounds nuw i8, ptr %79, i64 40
  %81 = load ptr, ptr %80, align 8, !tbaa !220
  br label %_ZN11CMainWindow14activeMdiChildEv.exit5

_ZN11CMainWindow14activeMdiChildEv.exit5:         ; preds = %76, %78
  %spec.select.i4 = phi ptr [ %77, %76 ], [ %81, %78 ]
  call void @_ZNK9QTextEdit10textCursorEv(ptr dead_on_unwind nonnull writable sret(%class.QTextCursor) align 8 %2, ptr noundef nonnull align 8 dereferenceable(40) %spec.select.i4)
  %82 = invoke noundef zeroext i1 @_ZNK11QTextCursor12hasSelectionEv(ptr noundef nonnull align 8 dereferenceable(8) %2)
          to label %83 unwind label %89

83:                                               ; preds = %_ZN11CMainWindow14activeMdiChildEv.exit5
  call void @_ZN11QTextCursorD1Ev(ptr noundef nonnull align 8 dereferenceable(8) %2) #16
  call void @llvm.lifetime.end.p0(i64 8, ptr nonnull %2) #16
  %84 = getelementptr inbounds nuw i8, ptr %0, i64 128
  %85 = load ptr, ptr %84, align 8, !tbaa !106
  %86 = getelementptr inbounds nuw i8, ptr %0, i64 136
  br i1 %82, label %87, label %91

87:                                               ; preds = %83
  call void @_ZN7QAction10setEnabledEb(ptr noundef nonnull align 8 dereferenceable(16) %85, i1 noundef zeroext true)
  %88 = load ptr, ptr %86, align 8, !tbaa !110
  call void @_ZN7QAction10setEnabledEb(ptr noundef nonnull align 8 dereferenceable(16) %88, i1 noundef zeroext true)
  br label %93

89:                                               ; preds = %_ZN11CMainWindow14activeMdiChildEv.exit5
  %90 = landingpad { ptr, i32 }
          cleanup
  call void @_ZN11QTextCursorD1Ev(ptr noundef nonnull align 8 dereferenceable(8) %2) #16
  call void @llvm.lifetime.end.p0(i64 8, ptr nonnull %2) #16
  resume { ptr, i32 } %90

91:                                               ; preds = %83
  call void @_ZN7QAction10setEnabledEb(ptr noundef nonnull align 8 dereferenceable(16) %85, i1 noundef zeroext false)
  %92 = load ptr, ptr %86, align 8, !tbaa !110
  call void @_ZN7QAction10setEnabledEb(ptr noundef nonnull align 8 dereferenceable(16) %92, i1 noundef zeroext false)
  br label %93

93:                                               ; preds = %87, %91, %_ZN11CMainWindow14activeMdiChildEv.exit.thread
  ret void
}